target datalayout = "e-m:e-p270:32:32-p271:32:32-p272:64:64-i64:64-i128:128-f80:128-n8:16:32:64-S128"
target triple = "x86_64-pc-linux-gnu"

%struct.CVodeMemRec = type { double, ptr, ptr, i32, i32, i32, double, double, ptr, i32, ptr, ptr, i32, ptr, i32, i32, double, double, ptr, i32, i32, i32, ptr, ptr, ptr, i32, i32, ptr, ptr, ptr, i32, double, i32, i32, double, ptr, ptr, i32, ptr, ptr, i32, i32, i32, double, ptr, ptr, [13 x ptr], ptr, ptr, ptr, ptr, ptr, [13 x ptr], ptr, ptr, ptr, ptr, [13 x ptr], ptr, ptr, ptr, ptr, ptr, i32, [13 x ptr], ptr, ptr, ptr, ptr, ptr, i32, double, i32, i32, i32, i32, i32, double, double, double, double, double, double, double, double, [14 x double], [6 x double], [13 x double], double, double, double, double, double, double, double, double, double, double, double, i32, ptr, i32, i64, i32, i32, i32, i32, i32, double, double, double, i64, i64, i64, i64, i64, i64, i64, i64, i64, ptr, i64, i64, ptr, i64, i64, i64, i64, i64, i64, i32, i64, i64, i64, i64, i64, i64, double, double, double, ptr, ptr, ptr, ptr, ptr, i32, i32, i64, double, double, double, i32, double, i32, i32, i32, i32, i32, i32, i32, i32, i32, i32, i32, i32, i32, i32, i32, i32, ptr, ptr, ptr, i32, [6 x [4 x double]], i32, i64, ptr, i32, ptr, ptr, double, double, double, ptr, ptr, ptr, double, double, i32, i32, i64, ptr, i32, i32, ptr, i32 }

@.str = private unnamed_addr constant [7 x i8] c"CVODES\00", align 1
@.str.6 = private unnamed_addr constant [26 x i8] c"cvode_mem = NULL illegal.\00", align 1
@.str.98 = private unnamed_addr constant [18 x i8] c"CVodeGetQuadSens1\00", align 1

; Function Attrs: nounwind uwtable
define i32 @CVodeGetQuadSens1(ptr noundef %0, ptr noundef %1, i32 noundef %2, ptr noundef %3) #0 {
  %5 = alloca i32, align 4
  %6 = alloca ptr, align 8
  %7 = alloca ptr, align 8
  %8 = alloca i32, align 4
  %9 = alloca ptr, align 8
  %10 = alloca ptr, align 8
  %11 = alloca i32, align 4
  %12 = alloca i32, align 4
  store ptr %0, ptr %6, align 8, !tbaa !101
  store ptr %1, ptr %7, align 8, !tbaa !208
  store i32 %2, ptr %8, align 4, !tbaa !3
  store ptr %3, ptr %9, align 8, !tbaa !103
  call void @llvm.lifetime.start.p0(i64 8, ptr %10) #8
  call void @llvm.lifetime.start.p0(i64 4, ptr %11) #8
  %13 = load ptr, ptr %6, align 8, !tbaa !101
  %14 = icmp eq ptr %13, null
  br i1 %14, label %15, label %16

15:                                               ; preds = %4
  call void (ptr, i32, ptr, ptr, ptr, ...) @cvProcessError(ptr noundef null, i32 noundef -21, ptr noundef @.str, ptr noundef @.str.98, ptr noundef @.str.6)
  store i32 -21, ptr %5, align 4
  store i32 1, ptr %12, align 4
  br label %30

16:                                               ; preds = %4
  %17 = load ptr, ptr %6, align 8, !tbaa !101
  store ptr %17, ptr %10, align 8, !tbaa !7
  %18 = load ptr, ptr %10, align 8, !tbaa !7
  %19 = getelementptr inbounds nuw %struct.CVodeMemRec, ptr %18, i32 0, i32 84
  %20 = load double, ptr %19, align 8, !tbaa !242
  %21 = load ptr, ptr %7, align 8, !tbaa !208
  store double %20, ptr %21, align 8, !tbaa !102
  %22 = load ptr, ptr %6, align 8, !tbaa !101
  %23 = load ptr, ptr %10, align 8, !tbaa !7
  %24 = getelementptr inbounds nuw %struct.CVodeMemRec, ptr %23, i32 0, i32 84
  %25 = load double, ptr %24, align 8, !tbaa !242
  %26 = load i32, ptr %8, align 4, !tbaa !3
  %27 = load ptr, ptr %9, align 8, !tbaa !103
  %28 = call i32 @CVodeGetQuadSensDky1(ptr noundef %22, double noundef %25, i32 noundef 0, i32 noundef %26, ptr noundef %27)
  store i32 %28, ptr %11, align 4, !tbaa !3
  %29 = load i32, ptr %11, align 4, !tbaa !3
  store i32 %29, ptr %5, align 4
  store i32 1, ptr %12, align 4
  br label %30

30:                                               ; preds = %16, %15
  call void @llvm.lifetime.end.p0(i64 4, ptr %11) #8
  call void @llvm.lifetime.end.p0(i64 8, ptr %10) #8
  %31 = load i32, ptr %5, align 4
  ret i32 %31
}